; ModuleID = '38/873.c'
source_filename = "38/873.c"
target datalayout = "e-m:e-p270:32:32-p271:32:32-p272:64:64-i64:64-f80:128-n8:16:32:64-S128"
target triple = "x86_64-pc-linux-gnu"

@.str = private unnamed_addr constant [3 x i8] c"%d\00", align 1
@.str.1 = private unnamed_addr constant [4 x i8] c"%lf\00", align 1
@.str.2 = private unnamed_addr constant [7 x i8] c"%.5lf\0A\00", align 1

; Function Attrs: noinline nounwind uwtable
define dso_local i32 @main() #0 {
  %1 = alloca i32, align 4
  %2 = alloca i32, align 4
  %3 = alloca i32, align 4
  %4 = alloca i32, align 4
  %5 = alloca i32, align 4
  %6 = alloca double, align 8
  %7 = alloca double, align 8
  %8 = alloca [1000 x double], align 16
  %9 = alloca double, align 8
  %10 = alloca double, align 8
  %11 = alloca double, align 8
  %12 = alloca i32, align 4
  %13 = alloca i32, align 4
  %14 = alloca i32, align 4
  store i32 0, i32* %1, align 4
  store double 0.000000e+00, double* %6, align 8
  store double 0.000000e+00, double* %7, align 8
  %15 = call i32 (i8*, ...) @__isoc99_scanf(i8* getelementptr inbounds ([3 x i8], [3 x i8]* @.str, i64 0, i64 0), i32* %2)
  store i32 0, i32* %12, align 4
  br label %16

16:                                               ; preds = %71, %0
  %17 = load i32, i32* %12, align 4
  %18 = load i32, i32* %2, align 4
  %19 = icmp slt i32 %17, %18
  br i1 %19, label %20, label %74

20:                                               ; preds = %16
  store double 0.000000e+00, double* %6, align 8
  store double 0.000000e+00, double* %7, align 8
  %21 = call i32 (i8*, ...) @__isoc99_scanf(i8* getelementptr inbounds ([3 x i8], [3 x i8]* @.str, i64 0, i64 0), i32* %14)
  store i32 0, i32* %13, align 4
  br label %22

22:                                               ; preds = %37, %20
  %23 = load i32, i32* %13, align 4
  %24 = load i32, i32* %14, align 4
  %25 = icmp slt i32 %23, %24
  br i1 %25, label %26, label %40

26:                                               ; preds = %22
  %27 = load i32, i32* %13, align 4
  %28 = sext i32 %27 to i64
  %29 = getelementptr inbounds [1000 x double], [1000 x double]* %8, i64 0, i64 %28
  %30 = call i32 (i8*, ...) @__isoc99_scanf(i8* getelementptr inbounds ([4 x i8], [4 x i8]* @.str.1, i64 0, i64 0), double* %29)
  %31 = load i32, i32* %13, align 4
  %32 = sext i32 %31 to i64
  %33 = getelementptr inbounds [1000 x double], [1000 x double]* %8, i64 0, i64 %32
  %34 = load double, double* %33, align 8
  %35 = load double, double* %6, align 8
  %36 = fadd double %35, %34
  store double %36, double* %6, align 8
  br label %37

37:                                               ; preds = %26
  %38 = load i32, i32* %13, align 4
  %39 = add nsw i32 %38, 1
  store i32 %39, i32* %13, align 4
  br label %22

40:                                               ; preds = %22
  %41 = load double, double* %6, align 8
  %42 = load i32, i32* %14, align 4
  %43 = sitofp i32 %42 to double
  %44 = fdiv double %41, %43
  store double %44, double* %9, align 8
  store i32 0, i32* %13, align 4
  br label %45

45:                                               ; preds = %60, %40
  %46 = load i32, i32* %13, align 4
  %47 = load i32, i32* %14, align 4
  %48 = icmp slt i32 %46, %47
  br i1 %48, label %49, label %63

49:                                               ; preds = %45
  %50 = load i32, i32* %13, align 4
  %51 = sext i32 %50 to i64
  %52 = getelementptr inbounds [1000 x double], [1000 x double]* %8, i64 0, i64 %51
  %53 = load double, double* %52, align 8
  %54 = load double, double* %9, align 8
  %55 = fsub double %53, %54
  %56 = call double @pow(double %55, double 2.000000e+00) #3
  store double %56, double* %10, align 8
  %57 = load double, double* %10, align 8
  %58 = load double, double* %7, align 8
  %59 = fadd double %58, %57
  store double %59, double* %7, align 8
  br label %60

60:                                               ; preds = %49
  %61 = load i32, i32* %13, align 4
  %62 = add nsw i32 %61, 1
  store i32 %62, i32* %13, align 4
  br label %45

63:                                               ; preds = %45
  %64 = load double, double* %7, align 8
  %65 = load i32, i32* %14, align 4
  %66 = sitofp i32 %65 to double
  %67 = fdiv double %64, %66
  %68 = call double @pow(double %67, double 5.000000e-01) #3
  store double %68, double* %11, align 8
  %69 = load double, double* %11, align 8
  %70 = call i32 (i8*, ...) @printf(i8* getelementptr inbounds ([7 x i8], [7 x i8]* @.str.2, i64 0, i64 0), double %69)
  br label %71

71:                                               ; preds = %63
  %72 = load i32, i32* %12, align 4
  %73 = add nsw i32 %72, 1
  store i32 %73, i32* %12, align 4
  br label %16

74:                                               ; preds = %16
  ret i32 0
}

declare dso_local i32 @__isoc99_scanf(i8*, ...) #1

; Function Attrs: nounwind
declare dso_local double @pow(double, double) #2

declare dso_local i32 @printf(i8*, ...) #1


!llvm.module.flags = !{!0}
!llvm.ident = !{!1}

!0 = !{i32 1, !"wchar_size", i32 4}
!1 = !{!"clang version 10.0.0-4ubuntu1 "}
